target datalayout = "e-m:e-p270:32:32-p271:32:32-p272:64:64-i64:64-i128:128-f80:128-n8:16:32:64-S128"
target triple = "x86_64-pc-linux-gnu"

@.str = private unnamed_addr constant [3 x i8] c"DH\00", align 1

; Function Attrs: nounwind uwtable
define dso_local ptr @get_dh4096(ptr noundef %0) #0 {
  %2 = alloca ptr, align 8
  %3 = alloca ptr, align 8
  %4 = alloca ptr, align 8
  %5 = alloca ptr, align 8
  store ptr %0, ptr %2, align 8, !tbaa !4
  call void @llvm.lifetime.start.p0(i64 8, ptr %3) #3
  store ptr null, ptr %3, align 8, !tbaa !15
  call void @llvm.lifetime.start.p0(i64 8, ptr %4) #3
  store ptr null, ptr %4, align 8, !tbaa !15
  call void @llvm.lifetime.start.p0(i64 8, ptr %5) #3
  store ptr null, ptr %5, align 8, !tbaa !13
  %6 = call ptr @BN_new()
  store ptr %6, ptr %4, align 8, !tbaa !15
  %7 = load ptr, ptr %4, align 8, !tbaa !15
  %8 = icmp eq ptr %7, null
  br i1 %8, label %13, label %9

9:                                                ; preds = %1
  %10 = load ptr, ptr %4, align 8, !tbaa !15
  %11 = call i32 @BN_set_word(ptr noundef %10, i64 noundef 2)
  %12 = icmp ne i32 %11, 0
  br i1 %12, label %14, label %13

13:                                               ; preds = %9, %1
  br label %24

14:                                               ; preds = %9
  %15 = call ptr @BN_get_rfc3526_prime_4096(ptr noundef null)
  store ptr %15, ptr %3, align 8, !tbaa !15
  %16 = load ptr, ptr %3, align 8, !tbaa !15
  %17 = icmp eq ptr %16, null
  br i1 %17, label %18, label %19

18:                                               ; preds = %14
  br label %24

19:                                               ; preds = %14
  %20 = load ptr, ptr %2, align 8, !tbaa !4
  %21 = load ptr, ptr %3, align 8, !tbaa !15
  %22 = load ptr, ptr %4, align 8, !tbaa !15
  %23 = call ptr @get_dh_from_pg_bn(ptr noundef %20, ptr noundef @.str, ptr noundef %21, ptr noundef %22, ptr noundef null)
  store ptr %23, ptr %5, align 8, !tbaa !13
  br label %24

24:                                               ; preds = %19, %18, %13
  %25 = load ptr, ptr %3, align 8, !tbaa !15
  call void @BN_free(ptr noundef %25)
  %26 = load ptr, ptr %4, align 8, !tbaa !15
  call void @BN_free(ptr noundef %26)
  %27 = load ptr, ptr %5, align 8, !tbaa !13
  call void @llvm.lifetime.end.p0(i64 8, ptr %5) #3
  call void @llvm.lifetime.end.p0(i64 8, ptr %4) #3
  call void @llvm.lifetime.end.p0(i64 8, ptr %3) #3
  ret ptr %27
}